target datalayout = "e-m:e-p270:32:32-p271:32:32-p272:64:64-i64:64-i128:128-f80:128-n8:16:32:64-S128"
target triple = "x86_64-pc-linux-gnu"

%struct.ImVec2 = type { float, float }
%struct.ImRect = type { %struct.ImVec2, %struct.ImVec2 }
%struct.ImGuiTextBuffer = type { %struct.ImVector.34 }
%struct.ImVector.34 = type { i32, i32, ptr }
%struct.ImGuiTabBar = type { ptr, %struct.ImVector.47, i32, i32, i32, i32, i32, i32, i32, %struct.ImRect, float, float, float, float, float, float, float, float, float, float, float, float, i32, i16, i8, i8, i8, i8, i16, i16, float, %struct.ImVec2, %struct.ImVec2, %struct.ImGuiTextBuffer }
%struct.ImVector.47 = type { i32, i32, ptr }
%struct.ImGuiTabItem = type <{ i32, i32, i32, i32, float, float, float, float, i32, i16, i16, i8, [3 x i8] }>

; Function Attrs: mustprogress nounwind uwtable
define void @_ZN5ImGui16TabBarQueueFocusEP11ImGuiTabBarP12ImGuiTabItem(ptr noundef %0, ptr noundef %1) #4 {
  %3 = alloca ptr, align 8
  %4 = alloca ptr, align 8
  store ptr %0, ptr %3, align 8, !tbaa !833
  store ptr %1, ptr %4, align 8, !tbaa !875
  %5 = load ptr, ptr %4, align 8, !tbaa !875
  %6 = getelementptr inbounds nuw %struct.ImGuiTabItem, ptr %5, i32 0, i32 0
  %7 = load i32, ptr %6, align 4, !tbaa !882
  %8 = load ptr, ptr %3, align 8, !tbaa !833
  %9 = getelementptr inbounds nuw %struct.ImGuiTabBar, ptr %8, i32 0, i32 5
  store i32 %7, ptr %9, align 4, !tbaa !884
  ret void
}

; Function Attrs: mustprogress uwtable
define void @_ZN5ImGui14TabBarCloseTabEP11ImGuiTabBarP12ImGuiTabItem(ptr noundef %0, ptr noundef %1) #9 {
  %3 = alloca ptr, align 8
  %4 = alloca ptr, align 8
  store ptr %0, ptr %3, align 8, !tbaa !833
  store ptr %1, ptr %4, align 8, !tbaa !875
  %5 = load ptr, ptr %4, align 8, !tbaa !875
  %6 = getelementptr inbounds nuw %struct.ImGuiTabItem, ptr %5, i32 0, i32 1
  %7 = load i32, ptr %6, align 4, !tbaa !893
  %8 = and i32 %7, 2097152
  %9 = icmp ne i32 %8, 0
  br i1 %9, label %10, label %11

10:                                               ; preds = %2
  br label %47

11:                                               ; preds = %2
  %12 = load ptr, ptr %4, align 8, !tbaa !875
  %13 = getelementptr inbounds nuw %struct.ImGuiTabItem, ptr %12, i32 0, i32 1
  %14 = load i32, ptr %13, align 4, !tbaa !893
  %15 = and i32 %14, 257
  %16 = icmp eq i32 %15, 0
  br i1 %16, label %17, label %35

17:                                               ; preds = %11
  %18 = load ptr, ptr %4, align 8, !tbaa !875
  %19 = getelementptr inbounds nuw %struct.ImGuiTabItem, ptr %18, i32 0, i32 11
  store i8 1, ptr %19, align 4, !tbaa !881
  %20 = load ptr, ptr %3, align 8, !tbaa !833
  %21 = getelementptr inbounds nuw %struct.ImGuiTabBar, ptr %20, i32 0, i32 6
  %22 = load i32, ptr %21, align 8, !tbaa !879
  %23 = load ptr, ptr %4, align 8, !tbaa !875
  %24 = getelementptr inbounds nuw %struct.ImGuiTabItem, ptr %23, i32 0, i32 0
  %25 = load i32, ptr %24, align 4, !tbaa !882
  %26 = icmp eq i32 %22, %25
  br i1 %26, label %27, label %34

27:                                               ; preds = %17
  %28 = load ptr, ptr %4, align 8, !tbaa !875
  %29 = getelementptr inbounds nuw %struct.ImGuiTabItem, ptr %28, i32 0, i32 2
  store i32 -1, ptr %29, align 4, !tbaa !880
  %30 = load ptr, ptr %3, align 8, !tbaa !833
  %31 = getelementptr inbounds nuw %struct.ImGuiTabBar, ptr %30, i32 0, i32 5
  store i32 0, ptr %31, align 4, !tbaa !884
  %32 = load ptr, ptr %3, align 8, !tbaa !833
  %33 = getelementptr inbounds nuw %struct.ImGuiTabBar, ptr %32, i32 0, i32 4
  store i32 0, ptr %33, align 8, !tbaa !883
  br label %34

34:                                               ; preds = %27, %17
  br label %47

35:                                               ; preds = %11
  %36 = load ptr, ptr %3, align 8, !tbaa !833
  %37 = getelementptr inbounds nuw %struct.ImGuiTabBar, ptr %36, i32 0, i32 6
  %38 = load i32, ptr %37, align 8, !tbaa !879
  %39 = load ptr, ptr %4, align 8, !tbaa !875
  %40 = getelementptr inbounds nuw %struct.ImGuiTabItem, ptr %39, i32 0, i32 0
  %41 = load i32, ptr %40, align 4, !tbaa !882
  %42 = icmp ne i32 %38, %41
  br i1 %42, label %43, label %46

43:                                               ; preds = %35
  %44 = load ptr, ptr %3, align 8, !tbaa !833
  %45 = load ptr, ptr %4, align 8, !tbaa !875
  call void @_ZN5ImGui16TabBarQueueFocusEP11ImGuiTabBarP12ImGuiTabItem(ptr noundef %44, ptr noundef %45)
  br label %46

46:                                               ; preds = %43, %35
  br label %47

47:                                               ; preds = %10, %46, %34
  ret void
}